target datalayout = "e-m:e-p270:32:32-p271:32:32-p272:64:64-i64:64-i128:128-f80:128-n8:16:32:64-S128"
target triple = "x86_64-pc-linux-gnu"

%struct.VuDev = type { i32, i32, ptr, ptr, %struct.VuDevInflightInfo, i32, %union.pthread_mutex_t, i32, i64, ptr, i64, i64, i8, i16, ptr, ptr, ptr, ptr, ptr, i32, i8 }
%struct.VuDevInflightInfo = type { i32, ptr, i64 }
%union.pthread_mutex_t = type { %struct.__pthread_mutex_s }
%struct.__pthread_mutex_s = type { i32, i32, i32, i32, i32, i16, i16, %struct.__pthread_internal_list }
%struct.__pthread_internal_list = type { ptr, ptr }
%struct.VuVirtq = type { %struct.VuRing, ptr, ptr, i16, i64, i16, i16, i16, i16, i8, i8, i32, ptr, i32, i32, i32, i32, i8, %struct.vhost_vring_addr }
%struct.VuRing = type { i32, ptr, ptr, ptr, i64, i32 }
%struct.vhost_vring_addr = type { i32, i32, i64, i64, i64, i64 }
%struct.VhostUserMsg = type <{ i32, i32, i32, %union.anon, [8 x i32], i32, ptr }>
%union.anon = type { %struct.VhostUserMemory, [8 x i8] }
%struct.VhostUserMemory = type { i32, i32, [8 x %struct.VhostUserMemoryRegion] }
%struct.VhostUserMemoryRegion = type { i64, i64, i64, i64 }
%struct.VuDevIface = type { ptr, ptr, ptr, ptr, ptr, ptr, ptr, ptr, ptr, ptr }
%struct.vring_used = type { i16, i16, [0 x %struct.vring_used_elem] }
%struct.vring_used_elem = type { i32, i32 }

@.str.75 = private unnamed_addr constant [27 x i8] c"Invalid vring_addr message\00", align 1

; Function Attrs: inlinehint nounwind uwtable
define internal zeroext i16 @__uint16_identity(i16 noundef zeroext %0) #3 {
  %2 = alloca i16, align 2
  store i16 %0, ptr %2, align 2
  %3 = load i16, ptr %2, align 2
  ret i16 %3
}

; Function Attrs: nounwind uwtable
define internal zeroext i1 @vu_set_vring_addr_exec(ptr noundef %0, ptr noundef %1) #0 {
  %3 = alloca i1, align 1
  %4 = alloca ptr, align 8
  %5 = alloca ptr, align 8
  %6 = alloca %struct.vhost_vring_addr, align 8
  %7 = alloca ptr, align 8
  %8 = alloca i32, align 4
  %9 = alloca ptr, align 8
  %10 = alloca i32, align 4
  %11 = alloca i8, align 1
  store ptr %0, ptr %4, align 8
  store ptr %1, ptr %5, align 8
  call void @llvm.lifetime.start.p0(i64 40, ptr %6) #13
  call void @llvm.memset.p0.i64(ptr align 8 %6, i8 0, i64 40, i1 false), !annotation !4
  %12 = load ptr, ptr %5, align 8
  %13 = getelementptr inbounds nuw %struct.VhostUserMsg, ptr %12, i32 0, i32 3
  call void @llvm.memcpy.p0.p0.i64(ptr align 8 %6, ptr align 1 %13, i64 40, i1 false)
  call void @llvm.lifetime.start.p0(i64 8, ptr %7) #13
  store ptr %6, ptr %7, align 8
  call void @llvm.lifetime.start.p0(i64 4, ptr %8) #13
  %14 = load ptr, ptr %7, align 8
  %15 = getelementptr inbounds nuw %struct.vhost_vring_addr, ptr %14, i32 0, i32 0
  %16 = load i32, ptr %15, align 8
  store i32 %16, ptr %8, align 4
  call void @llvm.lifetime.start.p0(i64 8, ptr %9) #13
  %17 = load ptr, ptr %4, align 8
  %18 = getelementptr inbounds nuw %struct.VuDev, ptr %17, i32 0, i32 3
  %19 = load ptr, ptr %18, align 8
  %20 = load i32, ptr %8, align 4
  %21 = zext i32 %20 to i64
  %22 = getelementptr inbounds nuw %struct.VuVirtq, ptr %19, i64 %21
  store ptr %22, ptr %9, align 8
  br label %23

23:                                               ; preds = %2
  br label %24

24:                                               ; preds = %23
  br label %25

25:                                               ; preds = %24
  br label %26

26:                                               ; preds = %25
  br label %27

27:                                               ; preds = %26
  br label %28

28:                                               ; preds = %27
  br label %29

29:                                               ; preds = %28
  br label %30

30:                                               ; preds = %29
  br label %31

31:                                               ; preds = %30
  br label %32

32:                                               ; preds = %31
  br label %33

33:                                               ; preds = %32
  br label %34

34:                                               ; preds = %33
  br label %35

35:                                               ; preds = %34
  br label %36

36:                                               ; preds = %35
  br label %37

37:                                               ; preds = %36
  br label %38

38:                                               ; preds = %37
  br label %39

39:                                               ; preds = %38
  br label %40

40:                                               ; preds = %39
  br label %41

41:                                               ; preds = %40
  br label %42

42:                                               ; preds = %41
  br label %43

43:                                               ; preds = %42
  %44 = load ptr, ptr %9, align 8
  %45 = getelementptr inbounds nuw %struct.VuVirtq, ptr %44, i32 0, i32 18
  %46 = load ptr, ptr %7, align 8
  call void @llvm.memcpy.p0.p0.i64(ptr align 8 %45, ptr align 8 %46, i64 40, i1 false)
  %47 = load ptr, ptr %7, align 8
  %48 = getelementptr inbounds nuw %struct.vhost_vring_addr, ptr %47, i32 0, i32 1
  %49 = load i32, ptr %48, align 4
  %50 = load ptr, ptr %9, align 8
  %51 = getelementptr inbounds nuw %struct.VuVirtq, ptr %50, i32 0, i32 0
  %52 = getelementptr inbounds nuw %struct.VuRing, ptr %51, i32 0, i32 5
  store i32 %49, ptr %52, align 8
  %53 = load ptr, ptr %7, align 8
  %54 = getelementptr inbounds nuw %struct.vhost_vring_addr, ptr %53, i32 0, i32 5
  %55 = load i64, ptr %54, align 8
  %56 = load ptr, ptr %9, align 8
  %57 = getelementptr inbounds nuw %struct.VuVirtq, ptr %56, i32 0, i32 0
  %58 = getelementptr inbounds nuw %struct.VuRing, ptr %57, i32 0, i32 4
  store i64 %55, ptr %58, align 8
  %59 = load ptr, ptr %4, align 8
  %60 = load ptr, ptr %9, align 8
  %61 = call zeroext i1 @map_ring(ptr noundef %59, ptr noundef %60)
  br i1 %61, label %62, label %64

62:                                               ; preds = %43
  %63 = load ptr, ptr %4, align 8
  call void (ptr, ptr, ...) @vu_panic(ptr noundef %63, ptr noundef @.str.75)
  store i1 false, ptr %3, align 1
  store i32 1, ptr %10, align 4
  br label %117

64:                                               ; preds = %43
  %65 = load ptr, ptr %9, align 8
  %66 = getelementptr inbounds nuw %struct.VuVirtq, ptr %65, i32 0, i32 0
  %67 = getelementptr inbounds nuw %struct.VuRing, ptr %66, i32 0, i32 3
  %68 = load ptr, ptr %67, align 8
  %69 = getelementptr inbounds nuw %struct.vring_used, ptr %68, i32 0, i32 1
  %70 = load i16, ptr %69, align 2
  %71 = call zeroext i16 @__uint16_identity(i16 noundef zeroext %70)
  %72 = load ptr, ptr %9, align 8
  %73 = getelementptr inbounds nuw %struct.VuVirtq, ptr %72, i32 0, i32 7
  store i16 %71, ptr %73, align 4
  %74 = load ptr, ptr %9, align 8
  %75 = getelementptr inbounds nuw %struct.VuVirtq, ptr %74, i32 0, i32 5
  %76 = load i16, ptr %75, align 8
  %77 = zext i16 %76 to i32
  %78 = load ptr, ptr %9, align 8
  %79 = getelementptr inbounds nuw %struct.VuVirtq, ptr %78, i32 0, i32 7
  %80 = load i16, ptr %79, align 4
  %81 = zext i16 %80 to i32
  %82 = icmp ne i32 %77, %81
  br i1 %82, label %83, label %116

83:                                               ; preds = %64
  call void @llvm.lifetime.start.p0(i64 1, ptr %11) #13
  %84 = load ptr, ptr %4, align 8
  %85 = getelementptr inbounds nuw %struct.VuDev, ptr %84, i32 0, i32 18
  %86 = load ptr, ptr %85, align 8
  %87 = getelementptr inbounds nuw %struct.VuDevIface, ptr %86, i32 0, i32 6
  %88 = load ptr, ptr %87, align 8
  %89 = icmp ne ptr %88, null
  br i1 %89, label %90, label %99

90:                                               ; preds = %83
  %91 = load ptr, ptr %4, align 8
  %92 = getelementptr inbounds nuw %struct.VuDev, ptr %91, i32 0, i32 18
  %93 = load ptr, ptr %92, align 8
  %94 = getelementptr inbounds nuw %struct.VuDevIface, ptr %93, i32 0, i32 6
  %95 = load ptr, ptr %94, align 8
  %96 = load ptr, ptr %4, align 8
  %97 = load i32, ptr %8, align 4
  %98 = call zeroext i1 %95(ptr noundef %96, i32 noundef %97)
  br label %99

99:                                               ; preds = %90, %83
  %100 = phi i1 [ false, %83 ], [ %98, %90 ]
  %101 = zext i1 %100 to i8
  store i8 %101, ptr %11, align 1
  br label %102

102:                                              ; preds = %99
  br label %103

103:                                              ; preds = %102
  br label %104

104:                                              ; preds = %103
  %105 = load i8, ptr %11, align 1, !range !5, !noundef !6
  %106 = trunc i8 %105 to i1
  br i1 %106, label %107, label %115

107:                                              ; preds = %104
  %108 = load ptr, ptr %9, align 8
  %109 = getelementptr inbounds nuw %struct.VuVirtq, ptr %108, i32 0, i32 7
  %110 = load i16, ptr %109, align 4
  %111 = load ptr, ptr %9, align 8
  %112 = getelementptr inbounds nuw %struct.VuVirtq, ptr %111, i32 0, i32 5
  store i16 %110, ptr %112, align 8
  %113 = load ptr, ptr %9, align 8
  %114 = getelementptr inbounds nuw %struct.VuVirtq, ptr %113, i32 0, i32 6
  store i16 %110, ptr %114, align 2
  br label %115

115:                                              ; preds = %107, %104
  call void @llvm.lifetime.end.p0(i64 1, ptr %11) #13
  br label %116

116:                                              ; preds = %115, %64
  store i1 false, ptr %3, align 1
  store i32 1, ptr %10, align 4
  br label %117

117:                                              ; preds = %116, %62
  call void @llvm.lifetime.end.p0(i64 8, ptr %9) #13
  call void @llvm.lifetime.end.p0(i64 4, ptr %8) #13
  call void @llvm.lifetime.end.p0(i64 8, ptr %7) #13
  call void @llvm.lifetime.end.p0(i64 40, ptr %6) #13
  %118 = load i1, ptr %3, align 1
  ret i1 %118
}