; Function Attrs: nounwind uwtable
define internal fastcc void @vu_set_vring_addr_exec(ptr noundef %0, ptr noundef nonnull readonly captures(none) %1) unnamed_addr #3 {
  %.sroa.7 = alloca { i64, i64, i64 }, align 8
  call void @llvm.lifetime.start.p0(i64 24, ptr nonnull %.sroa.7)
  %3 = getelementptr inbounds nuw i8, ptr %1, i64 12
  %.sroa.0.0.copyload = load i32, ptr %3, align 1
  %.sroa.6.0..sroa_idx = getelementptr inbounds nuw i8, ptr %1, i64 16
  %.sroa.6.0.copyload = load i32, ptr %.sroa.6.0..sroa_idx, align 1
  %.sroa.7.0..sroa_idx = getelementptr inbounds nuw i8, ptr %1, i64 20
  call void @llvm.memcpy.p0.p0.i64(ptr noundef nonnull align 8 dereferenceable(24) %.sroa.7, ptr noundef nonnull align 1 dereferenceable(24) %.sroa.7.0..sroa_idx, i64 24, i1 false)
  %.sroa.729.0..sroa_idx = getelementptr inbounds nuw i8, ptr %1, i64 44
  %.sroa.729.0.copyload = load i64, ptr %.sroa.729.0..sroa_idx, align 1
  %4 = getelementptr inbounds nuw i8, ptr %0, i64 16
  %5 = load ptr, ptr %4, align 8
  %6 = zext i32 %.sroa.0.0.copyload to i64
  %7 = getelementptr inbounds nuw %struct.VuVirtq, ptr %5, i64 %6
  %8 = getelementptr inbounds nuw i8, ptr %7, i64 128
  store i32 %.sroa.0.0.copyload, ptr %8, align 8
  %.sroa.6.0..sroa_idx26 = getelementptr inbounds nuw i8, ptr %7, i64 132
  store i32 %.sroa.6.0.copyload, ptr %.sroa.6.0..sroa_idx26, align 4
  %.sroa.7.0..sroa_idx28 = getelementptr inbounds nuw i8, ptr %7, i64 136
  call void @llvm.memcpy.p0.p0.i64(ptr noundef nonnull align 8 dereferenceable(24) %.sroa.7.0..sroa_idx28, ptr noundef nonnull align 8 dereferenceable(24) %.sroa.7, i64 24, i1 false)
  %.sroa.729.0..sroa_idx30 = getelementptr inbounds nuw i8, ptr %7, i64 160
  store i64 %.sroa.729.0.copyload, ptr %.sroa.729.0..sroa_idx30, align 8
  %9 = getelementptr inbounds nuw i8, ptr %7, i64 40
  store i32 %.sroa.6.0.copyload, ptr %9, align 8
  %10 = getelementptr inbounds nuw i8, ptr %7, i64 32
  store i64 %.sroa.729.0.copyload, ptr %10, align 8
  %11 = tail call fastcc zeroext i1 @map_ring(ptr noundef %0, ptr noundef %7)
  br i1 %11, label %12, label %13

12:                                               ; preds = %2
  tail call void (ptr, ptr, ...) @vu_panic(ptr noundef nonnull %0, ptr noundef nonnull @.str.75)
  br label %.critedge

13:                                               ; preds = %2
  %14 = getelementptr inbounds nuw i8, ptr %7, i64 24
  %15 = load ptr, ptr %14, align 8
  %16 = getelementptr inbounds nuw i8, ptr %15, i64 2
  %17 = load i16, ptr %16, align 2
  %18 = getelementptr inbounds nuw i8, ptr %7, i64 84
  store i16 %17, ptr %18, align 4
  %19 = getelementptr inbounds nuw i8, ptr %7, i64 80
  %20 = load i16, ptr %19, align 8
  %.not = icmp eq i16 %20, %17
  br i1 %.not, label %.critedge, label %21

21:                                               ; preds = %13
  %22 = getelementptr inbounds nuw i8, ptr %0, i64 176
  %23 = load ptr, ptr %22, align 8
  %24 = getelementptr inbounds nuw i8, ptr %23, i64 48
  %25 = load ptr, ptr %24, align 8
  %.not34 = icmp eq ptr %25, null
  br i1 %.not34, label %.critedge, label %26

26:                                               ; preds = %21
  %27 = tail call zeroext i1 %25(ptr noundef nonnull %0, i32 noundef %.sroa.0.0.copyload) #21
  br i1 %27, label %28, label %.critedge

28:                                               ; preds = %26
  %29 = load i16, ptr %18, align 4
  store i16 %29, ptr %19, align 8
  %30 = getelementptr inbounds nuw i8, ptr %7, i64 82
  store i16 %29, ptr %30, align 2
  br label %.critedge

.critedge:                                        ; preds = %13, %21, %28, %26, %12
  call void @llvm.lifetime.end.p0(i64 24, ptr nonnull %.sroa.7)
  ret void
}